(dp0
S'all_col_names'
p1
(lp2
S'gender_MISSING'
p3
aS'gender_f'
p4
aS'dob'
p5
asS'cf_col_map'
p6
ccollections
OrderedDict
p7
((lp8
(lp9
g5
aI01
aatp10
Rp11
sS'bf_col_map'
p12
g7
((lp13
(lp14
S'gender'
p15
ag7
((lp16
(lp17
S'MISSING'
p18
aI01
aa(lp19
S'm'
p20
aI01
aa(lp21
S'f'
p22
aI01
aatp23
Rp24
aatp25
Rp26
s.